target datalayout = "e-m:e-p270:32:32-p271:32:32-p272:64:64-i64:64-i128:128-f80:128-n8:16:32:64-S128"
target triple = "x86_64-pc-linux-gnu"

%struct.quicklist = type { ptr, ptr, i64, i64, i64, [0 x %struct.quicklistBookmark] }
%struct.quicklistBookmark = type { ptr, ptr }
%struct.quicklistNode = type { ptr, ptr, ptr, i64, i32 }
%struct.quicklistLZF = type { i64, [0 x i8] }

; Function Attrs: nounwind uwtable
define dso_local void @quicklistSetCompressDepth(ptr noundef %0, i32 noundef %1) #0 {
  %3 = alloca ptr, align 8
  %4 = alloca i32, align 4
  store ptr %0, ptr %3, align 8, !tbaa !9
  store i32 %1, ptr %4, align 4, !tbaa !14
  %5 = load i32, ptr %4, align 4, !tbaa !14
  %6 = icmp sgt i32 %5, 65535
  br i1 %6, label %7, label %8

7:                                                ; preds = %2
  store i32 65535, ptr %4, align 4, !tbaa !14
  br label %13

8:                                                ; preds = %2
  %9 = load i32, ptr %4, align 4, !tbaa !14
  %10 = icmp slt i32 %9, 0
  br i1 %10, label %11, label %12

11:                                               ; preds = %8
  store i32 0, ptr %4, align 4, !tbaa !14
  br label %12

12:                                               ; preds = %11, %8
  br label %13

13:                                               ; preds = %12, %7
  %14 = load i32, ptr %4, align 4, !tbaa !14
  %15 = load ptr, ptr %3, align 8, !tbaa !9
  %16 = getelementptr inbounds nuw %struct.quicklist, ptr %15, i32 0, i32 4
  %17 = zext i32 %14 to i64
  %18 = load i64, ptr %16, align 8
  %19 = and i64 %17, 65535
  %20 = shl i64 %19, 16
  %21 = and i64 %18, -4294901761
  %22 = or i64 %21, %20
  store i64 %22, ptr %16, align 8
  ret void
}

; Function Attrs: nounwind uwtable
define dso_local void @quicklistSetFill(ptr noundef %0, i32 noundef %1) #0 {
  %3 = alloca ptr, align 8
  %4 = alloca i32, align 4
  store ptr %0, ptr %3, align 8, !tbaa !9
  store i32 %1, ptr %4, align 4, !tbaa !14
  %5 = load i32, ptr %4, align 4, !tbaa !14
  %6 = icmp sgt i32 %5, 32767
  br i1 %6, label %7, label %8

7:                                                ; preds = %2
  store i32 32767, ptr %4, align 4, !tbaa !14
  br label %13

8:                                                ; preds = %2
  %9 = load i32, ptr %4, align 4, !tbaa !14
  %10 = icmp slt i32 %9, -5
  br i1 %10, label %11, label %12

11:                                               ; preds = %8
  store i32 -5, ptr %4, align 4, !tbaa !14
  br label %12

12:                                               ; preds = %11, %8
  br label %13

13:                                               ; preds = %12, %7
  %14 = load i32, ptr %4, align 4, !tbaa !14
  %15 = load ptr, ptr %3, align 8, !tbaa !9
  %16 = getelementptr inbounds nuw %struct.quicklist, ptr %15, i32 0, i32 4
  %17 = zext i32 %14 to i64
  %18 = load i64, ptr %16, align 8
  %19 = and i64 %17, 65535
  %20 = and i64 %18, -65536
  %21 = or i64 %20, %19
  store i64 %21, ptr %16, align 8
  ret void
}

; Function Attrs: nounwind uwtable
define dso_local void @quicklistSetOptions(ptr noundef %0, i32 noundef %1, i32 noundef %2) #0 {
  %4 = alloca ptr, align 8
  %5 = alloca i32, align 4
  %6 = alloca i32, align 4
  store ptr %0, ptr %4, align 8, !tbaa !9
  store i32 %1, ptr %5, align 4, !tbaa !14
  store i32 %2, ptr %6, align 4, !tbaa !14
  %7 = load ptr, ptr %4, align 8, !tbaa !9
  %8 = load i32, ptr %5, align 4, !tbaa !14
  call void @quicklistSetFill(ptr noundef %7, i32 noundef %8)
  %9 = load ptr, ptr %4, align 8, !tbaa !9
  %10 = load i32, ptr %6, align 4, !tbaa !14
  call void @quicklistSetCompressDepth(ptr noundef %9, i32 noundef %10)
  ret void
}

; Function Attrs: nounwind uwtable
define dso_local ptr @quicklistCreate() #0 {
  %1 = alloca ptr, align 8
  call void @llvm.lifetime.start.p0(i64 8, ptr %1) #10
  %2 = call noalias ptr @zmalloc(i64 noundef 40) #11
  store ptr %2, ptr %1, align 8, !tbaa !9
  %3 = load ptr, ptr %1, align 8, !tbaa !9
  %4 = getelementptr inbounds nuw %struct.quicklist, ptr %3, i32 0, i32 1
  store ptr null, ptr %4, align 8, !tbaa !12
  %5 = load ptr, ptr %1, align 8, !tbaa !9
  %6 = getelementptr inbounds nuw %struct.quicklist, ptr %5, i32 0, i32 0
  store ptr null, ptr %6, align 8, !tbaa !12
  %7 = load ptr, ptr %1, align 8, !tbaa !9
  %8 = getelementptr inbounds nuw %struct.quicklist, ptr %7, i32 0, i32 3
  store i64 0, ptr %8, align 8, !tbaa !5
  %9 = load ptr, ptr %1, align 8, !tbaa !9
  %10 = getelementptr inbounds nuw %struct.quicklist, ptr %9, i32 0, i32 2
  store i64 0, ptr %10, align 8, !tbaa !5
  %11 = load ptr, ptr %1, align 8, !tbaa !9
  %12 = getelementptr inbounds nuw %struct.quicklist, ptr %11, i32 0, i32 4
  %13 = load i64, ptr %12, align 8
  %14 = and i64 %13, -4294901761
  %15 = or i64 %14, 0
  store i64 %15, ptr %12, align 8
  %16 = load ptr, ptr %1, align 8, !tbaa !9
  %17 = getelementptr inbounds nuw %struct.quicklist, ptr %16, i32 0, i32 4
  %18 = load i64, ptr %17, align 8
  %19 = and i64 %18, -65536
  %20 = or i64 %19, 65534
  store i64 %20, ptr %17, align 8
  %21 = load ptr, ptr %1, align 8, !tbaa !9
  %22 = getelementptr inbounds nuw %struct.quicklist, ptr %21, i32 0, i32 4
  %23 = load i64, ptr %22, align 8
  %24 = and i64 %23, -64424509441
  %25 = or i64 %24, 0
  store i64 %25, ptr %22, align 8
  %26 = load ptr, ptr %1, align 8, !tbaa !9
  call void @llvm.lifetime.end.p0(i64 8, ptr %1) #10
  ret ptr %26
}

; Function Attrs: nounwind uwtable
define dso_local void @_quicklistInsertNodeAfter(ptr noundef %0, ptr noundef %1, ptr noundef %2) #0 {
  %4 = alloca ptr, align 8
  %5 = alloca ptr, align 8
  %6 = alloca ptr, align 8
  store ptr %0, ptr %4, align 8, !tbaa !9
  store ptr %1, ptr %5, align 8, !tbaa !12
  store ptr %2, ptr %6, align 8, !tbaa !12
  %7 = load ptr, ptr %4, align 8, !tbaa !9
  %8 = load ptr, ptr %5, align 8, !tbaa !12
  %9 = load ptr, ptr %6, align 8, !tbaa !12
  call void @__quicklistInsertNode(ptr noundef %7, ptr noundef %8, ptr noundef %9, i32 noundef 1)
  ret void
}

; Function Attrs: nounwind uwtable
define dso_local ptr @quicklistCreateNode() #0 {
  %1 = alloca ptr, align 8
  call void @llvm.lifetime.start.p0(i64 8, ptr %1) #10
  %2 = call noalias ptr @zmalloc(i64 noundef 40) #11
  store ptr %2, ptr %1, align 8, !tbaa !12
  %3 = load ptr, ptr %1, align 8, !tbaa !12
  %4 = getelementptr inbounds nuw %struct.quicklistNode, ptr %3, i32 0, i32 2
  store ptr null, ptr %4, align 8, !tbaa !16
  %5 = load ptr, ptr %1, align 8, !tbaa !12
  %6 = getelementptr inbounds nuw %struct.quicklistNode, ptr %5, i32 0, i32 4
  %7 = load i32, ptr %6, align 8
  %8 = and i32 %7, -65536
  %9 = or i32 %8, 0
  store i32 %9, ptr %6, align 8
  %10 = load ptr, ptr %1, align 8, !tbaa !12
  %11 = getelementptr inbounds nuw %struct.quicklistNode, ptr %10, i32 0, i32 3
  store i64 0, ptr %11, align 8, !tbaa !19
  %12 = load ptr, ptr %1, align 8, !tbaa !12
  %13 = getelementptr inbounds nuw %struct.quicklistNode, ptr %12, i32 0, i32 0
  store ptr null, ptr %13, align 8, !tbaa !20
  %14 = load ptr, ptr %1, align 8, !tbaa !12
  %15 = getelementptr inbounds nuw %struct.quicklistNode, ptr %14, i32 0, i32 1
  store ptr null, ptr %15, align 8, !tbaa !21
  %16 = load ptr, ptr %1, align 8, !tbaa !12
  %17 = getelementptr inbounds nuw %struct.quicklistNode, ptr %16, i32 0, i32 4
  %18 = load i32, ptr %17, align 8
  %19 = and i32 %18, -196609
  %20 = or i32 %19, 65536
  store i32 %20, ptr %17, align 8
  %21 = load ptr, ptr %1, align 8, !tbaa !12
  %22 = getelementptr inbounds nuw %struct.quicklistNode, ptr %21, i32 0, i32 4
  %23 = load i32, ptr %22, align 8
  %24 = and i32 %23, -786433
  %25 = or i32 %24, 524288
  store i32 %25, ptr %22, align 8
  %26 = load ptr, ptr %1, align 8, !tbaa !12
  %27 = getelementptr inbounds nuw %struct.quicklistNode, ptr %26, i32 0, i32 4
  %28 = load i32, ptr %27, align 8
  %29 = and i32 %28, -1048577
  %30 = or i32 %29, 0
  store i32 %30, ptr %27, align 8
  %31 = load ptr, ptr %1, align 8, !tbaa !12
  %32 = getelementptr inbounds nuw %struct.quicklistNode, ptr %31, i32 0, i32 4
  %33 = load i32, ptr %32, align 8
  %34 = and i32 %33, -4194305
  %35 = or i32 %34, 0
  store i32 %35, ptr %32, align 8
  %36 = load ptr, ptr %1, align 8, !tbaa !12
  call void @llvm.lifetime.end.p0(i64 8, ptr %1) #10
  ret ptr %36
}

; Function Attrs: nounwind uwtable
define dso_local ptr @quicklistNew(i32 noundef %0, i32 noundef %1) #0 {
  %3 = alloca i32, align 4
  %4 = alloca i32, align 4
  %5 = alloca ptr, align 8
  store i32 %0, ptr %3, align 4, !tbaa !14
  store i32 %1, ptr %4, align 4, !tbaa !14
  call void @llvm.lifetime.start.p0(i64 8, ptr %5) #10
  %6 = call ptr @quicklistCreate()
  store ptr %6, ptr %5, align 8, !tbaa !9
  %7 = load ptr, ptr %5, align 8, !tbaa !9
  %8 = load i32, ptr %3, align 4, !tbaa !14
  %9 = load i32, ptr %4, align 4, !tbaa !14
  call void @quicklistSetOptions(ptr noundef %7, i32 noundef %8, i32 noundef %9)
  %10 = load ptr, ptr %5, align 8, !tbaa !9
  call void @llvm.lifetime.end.p0(i64 8, ptr %5) #10
  ret ptr %10
}

; Function Attrs: nounwind uwtable
define dso_local ptr @quicklistDup(ptr noundef %0) #0 {
  %2 = alloca ptr, align 8
  %3 = alloca ptr, align 8
  %4 = alloca ptr, align 8
  %5 = alloca ptr, align 8
  %6 = alloca ptr, align 8
  %7 = alloca i64, align 8
  store ptr %0, ptr %2, align 8, !tbaa !9
  call void @llvm.lifetime.start.p0(i64 8, ptr %3) #10
  %8 = load ptr, ptr %2, align 8, !tbaa !9
  %9 = getelementptr inbounds nuw %struct.quicklist, ptr %8, i32 0, i32 4
  %10 = load i64, ptr %9, align 8
  %11 = shl i64 %10, 48
  %12 = ashr i64 %11, 48
  %13 = trunc i64 %12 to i32
  %14 = load ptr, ptr %2, align 8, !tbaa !9
  %15 = getelementptr inbounds nuw %struct.quicklist, ptr %14, i32 0, i32 4
  %16 = load i64, ptr %15, align 8
  %17 = lshr i64 %16, 16
  %18 = and i64 %17, 65535
  %19 = trunc i64 %18 to i32
  %20 = call ptr @quicklistNew(i32 noundef %13, i32 noundef %19)
  store ptr %20, ptr %3, align 8, !tbaa !9
  call void @llvm.lifetime.start.p0(i64 8, ptr %4) #10
  %21 = load ptr, ptr %2, align 8, !tbaa !9
  %22 = getelementptr inbounds nuw %struct.quicklist, ptr %21, i32 0, i32 0
  %23 = load ptr, ptr %22, align 8, !tbaa !12
  store ptr %23, ptr %4, align 8, !tbaa !12
  br label %24

24:                                               ; preds = %133, %1
  %25 = load ptr, ptr %4, align 8, !tbaa !12
  %26 = icmp ne ptr %25, null
  br i1 %26, label %28, label %27

27:                                               ; preds = %24
  call void @llvm.lifetime.end.p0(i64 8, ptr %4) #10
  br label %137

28:                                               ; preds = %24
  call void @llvm.lifetime.start.p0(i64 8, ptr %5) #10
  %29 = call ptr @quicklistCreateNode()
  store ptr %29, ptr %5, align 8, !tbaa !12
  %30 = load ptr, ptr %4, align 8, !tbaa !12
  %31 = getelementptr inbounds nuw %struct.quicklistNode, ptr %30, i32 0, i32 4
  %32 = load i32, ptr %31, align 8
  %33 = lshr i32 %32, 16
  %34 = and i32 %33, 3
  %35 = icmp eq i32 %34, 2
  br i1 %35, label %36, label %55

36:                                               ; preds = %28
  call void @llvm.lifetime.start.p0(i64 8, ptr %6) #10
  %37 = load ptr, ptr %4, align 8, !tbaa !12
  %38 = getelementptr inbounds nuw %struct.quicklistNode, ptr %37, i32 0, i32 2
  %39 = load ptr, ptr %38, align 8, !tbaa !16
  store ptr %39, ptr %6, align 8, !tbaa !27
  call void @llvm.lifetime.start.p0(i64 8, ptr %7) #10
  %40 = load ptr, ptr %6, align 8, !tbaa !27
  %41 = getelementptr inbounds nuw %struct.quicklistLZF, ptr %40, i32 0, i32 0
  %42 = load i64, ptr %41, align 8, !tbaa !5
  %43 = add i64 8, %42
  store i64 %43, ptr %7, align 8, !tbaa !5
  %44 = load i64, ptr %7, align 8, !tbaa !5
  %45 = call noalias ptr @zmalloc(i64 noundef %44) #11
  %46 = load ptr, ptr %5, align 8, !tbaa !12
  %47 = getelementptr inbounds nuw %struct.quicklistNode, ptr %46, i32 0, i32 2
  store ptr %45, ptr %47, align 8, !tbaa !16
  %48 = load ptr, ptr %5, align 8, !tbaa !12
  %49 = getelementptr inbounds nuw %struct.quicklistNode, ptr %48, i32 0, i32 2
  %50 = load ptr, ptr %49, align 8, !tbaa !16
  %51 = load ptr, ptr %4, align 8, !tbaa !12
  %52 = getelementptr inbounds nuw %struct.quicklistNode, ptr %51, i32 0, i32 2
  %53 = load ptr, ptr %52, align 8, !tbaa !16
  %54 = load i64, ptr %7, align 8, !tbaa !5
  call void @llvm.memcpy.p0.p0.i64(ptr align 1 %50, ptr align 1 %53, i64 %54, i1 false)
  call void @llvm.lifetime.end.p0(i64 8, ptr %7) #10
  call void @llvm.lifetime.end.p0(i64 8, ptr %6) #10
  br label %79

55:                                               ; preds = %28
  %56 = load ptr, ptr %4, align 8, !tbaa !12
  %57 = getelementptr inbounds nuw %struct.quicklistNode, ptr %56, i32 0, i32 4
  %58 = load i32, ptr %57, align 8
  %59 = lshr i32 %58, 16
  %60 = and i32 %59, 3
  %61 = icmp eq i32 %60, 1
  br i1 %61, label %62, label %78

62:                                               ; preds = %55
  %63 = load ptr, ptr %4, align 8, !tbaa !12
  %64 = getelementptr inbounds nuw %struct.quicklistNode, ptr %63, i32 0, i32 3
  %65 = load i64, ptr %64, align 8, !tbaa !19
  %66 = call noalias ptr @zmalloc(i64 noundef %65) #11
  %67 = load ptr, ptr %5, align 8, !tbaa !12
  %68 = getelementptr inbounds nuw %struct.quicklistNode, ptr %67, i32 0, i32 2
  store ptr %66, ptr %68, align 8, !tbaa !16
  %69 = load ptr, ptr %5, align 8, !tbaa !12
  %70 = getelementptr inbounds nuw %struct.quicklistNode, ptr %69, i32 0, i32 2
  %71 = load ptr, ptr %70, align 8, !tbaa !16
  %72 = load ptr, ptr %4, align 8, !tbaa !12
  %73 = getelementptr inbounds nuw %struct.quicklistNode, ptr %72, i32 0, i32 2
  %74 = load ptr, ptr %73, align 8, !tbaa !16
  %75 = load ptr, ptr %4, align 8, !tbaa !12
  %76 = getelementptr inbounds nuw %struct.quicklistNode, ptr %75, i32 0, i32 3
  %77 = load i64, ptr %76, align 8, !tbaa !19
  call void @llvm.memcpy.p0.p0.i64(ptr align 1 %71, ptr align 1 %74, i64 %77, i1 false)
  br label %78

78:                                               ; preds = %62, %55
  br label %79

79:                                               ; preds = %78, %36
  %80 = load ptr, ptr %4, align 8, !tbaa !12
  %81 = getelementptr inbounds nuw %struct.quicklistNode, ptr %80, i32 0, i32 4
  %82 = load i32, ptr %81, align 8
  %83 = and i32 %82, 65535
  %84 = load ptr, ptr %5, align 8, !tbaa !12
  %85 = getelementptr inbounds nuw %struct.quicklistNode, ptr %84, i32 0, i32 4
  %86 = load i32, ptr %85, align 8
  %87 = and i32 %83, 65535
  %88 = and i32 %86, -65536
  %89 = or i32 %88, %87
  store i32 %89, ptr %85, align 8
  %90 = load ptr, ptr %5, align 8, !tbaa !12
  %91 = getelementptr inbounds nuw %struct.quicklistNode, ptr %90, i32 0, i32 4
  %92 = load i32, ptr %91, align 8
  %93 = and i32 %92, 65535
  %94 = zext i32 %93 to i64
  %95 = load ptr, ptr %3, align 8, !tbaa !9
  %96 = getelementptr inbounds nuw %struct.quicklist, ptr %95, i32 0, i32 2
  %97 = load i64, ptr %96, align 8, !tbaa !5
  %98 = add i64 %97, %94
  store i64 %98, ptr %96, align 8, !tbaa !5
  %99 = load ptr, ptr %4, align 8, !tbaa !12
  %100 = getelementptr inbounds nuw %struct.quicklistNode, ptr %99, i32 0, i32 3
  %101 = load i64, ptr %100, align 8, !tbaa !19
  %102 = load ptr, ptr %5, align 8, !tbaa !12
  %103 = getelementptr inbounds nuw %struct.quicklistNode, ptr %102, i32 0, i32 3
  store i64 %101, ptr %103, align 8, !tbaa !19
  %104 = load ptr, ptr %4, align 8, !tbaa !12
  %105 = getelementptr inbounds nuw %struct.quicklistNode, ptr %104, i32 0, i32 4
  %106 = load i32, ptr %105, align 8
  %107 = lshr i32 %106, 16
  %108 = and i32 %107, 3
  %109 = load ptr, ptr %5, align 8, !tbaa !12
  %110 = getelementptr inbounds nuw %struct.quicklistNode, ptr %109, i32 0, i32 4
  %111 = load i32, ptr %110, align 8
  %112 = and i32 %108, 3
  %113 = shl i32 %112, 16
  %114 = and i32 %111, -196609
  %115 = or i32 %114, %113
  store i32 %115, ptr %110, align 8
  %116 = load ptr, ptr %4, align 8, !tbaa !12
  %117 = getelementptr inbounds nuw %struct.quicklistNode, ptr %116, i32 0, i32 4
  %118 = load i32, ptr %117, align 8
  %119 = lshr i32 %118, 18
  %120 = and i32 %119, 3
  %121 = load ptr, ptr %5, align 8, !tbaa !12
  %122 = getelementptr inbounds nuw %struct.quicklistNode, ptr %121, i32 0, i32 4
  %123 = load i32, ptr %122, align 8
  %124 = and i32 %120, 3
  %125 = shl i32 %124, 18
  %126 = and i32 %123, -786433
  %127 = or i32 %126, %125
  store i32 %127, ptr %122, align 8
  %128 = load ptr, ptr %3, align 8, !tbaa !9
  %129 = load ptr, ptr %3, align 8, !tbaa !9
  %130 = getelementptr inbounds nuw %struct.quicklist, ptr %129, i32 0, i32 1
  %131 = load ptr, ptr %130, align 8, !tbaa !12
  %132 = load ptr, ptr %5, align 8, !tbaa !12
  call void @_quicklistInsertNodeAfter(ptr noundef %128, ptr noundef %131, ptr noundef %132)
  call void @llvm.lifetime.end.p0(i64 8, ptr %5) #10
  br label %133

133:                                              ; preds = %79
  %134 = load ptr, ptr %4, align 8, !tbaa !12
  %135 = getelementptr inbounds nuw %struct.quicklistNode, ptr %134, i32 0, i32 1
  %136 = load ptr, ptr %135, align 8, !tbaa !21
  store ptr %136, ptr %4, align 8, !tbaa !12
  br label %24, !llvm.loop !64

137:                                              ; preds = %27
  %138 = load ptr, ptr %3, align 8, !tbaa !9
  call void @llvm.lifetime.end.p0(i64 8, ptr %3) #10
  ret ptr %138
}