; Function Attrs: nounwind uwtable
define dso_local noalias noundef ptr @quicklistDup(ptr noundef readonly captures(none) %0) local_unnamed_addr #1 {
  %2 = getelementptr inbounds nuw i8, ptr %0, i64 32
  %3 = load i64, ptr %2, align 8
  %4 = shl i64 %3, 48
  %5 = ashr exact i64 %4, 48
  %6 = trunc nsw i64 %5 to i32
  %7 = trunc i64 %3 to i32
  %8 = and i32 %7, -65536
  %9 = tail call noalias dereferenceable_or_null(40) ptr @zmalloc(i64 noundef 40) #22
  %10 = getelementptr inbounds nuw i8, ptr %9, i64 32
  tail call void @llvm.memset.p0.i64(ptr noundef nonnull align 8 dereferenceable(32) %9, i8 0, i64 32, i1 false)
  %11 = load i64, ptr %10, align 8
  %12 = and i64 %11, -68719476736
  %spec.store.select.i.i.i = tail call i32 @llvm.smax.i32(i32 %6, i32 -5)
  %13 = and i32 %spec.store.select.i.i.i, 65535
  %14 = or disjoint i32 %13, %8
  %15 = zext i32 %14 to i64
  %16 = or disjoint i64 %12, %15
  store i64 %16, ptr %10, align 8
  %.033 = load ptr, ptr %0, align 8, !tbaa !16
  %.not34 = icmp eq ptr %.033, null
  br i1 %.not34, label %._crit_edge, label %.lr.ph

.lr.ph:                                           ; preds = %1
  %17 = getelementptr inbounds nuw i8, ptr %9, i64 16
  %18 = getelementptr inbounds nuw i8, ptr %9, i64 8
  br label %19

._crit_edge:                                      ; preds = %45, %1
  ret ptr %9

19:                                               ; preds = %.lr.ph, %45
  %.035 = phi ptr [ %.033, %.lr.ph ], [ %.0, %45 ]
  %20 = tail call noalias dereferenceable_or_null(40) ptr @zmalloc(i64 noundef 40) #22
  %21 = getelementptr inbounds nuw i8, ptr %20, i64 16
  store ptr null, ptr %21, align 8, !tbaa !9
  %22 = getelementptr inbounds nuw i8, ptr %20, i64 32
  %23 = load i32, ptr %22, align 8
  %24 = getelementptr inbounds nuw i8, ptr %20, i64 24
  store i64 0, ptr %24, align 8, !tbaa !15
  %25 = and i32 %23, -6291456
  %26 = or disjoint i32 %25, 589824
  tail call void @llvm.memset.p0.i64(ptr noundef nonnull align 8 dereferenceable(16) %20, i8 0, i64 16, i1 false)
  store i32 %26, ptr %22, align 8
  %27 = getelementptr inbounds nuw i8, ptr %.035, i64 32
  %28 = load i32, ptr %27, align 8
  %29 = lshr i32 %28, 16
  %30 = and i32 %29, 3
  switch i32 %30, label %45 [
    i32 2, label %31
    i32 1, label %38
  ]

31:                                               ; preds = %19
  %32 = getelementptr inbounds nuw i8, ptr %.035, i64 16
  %33 = load ptr, ptr %32, align 8, !tbaa !9
  %34 = load i64, ptr %33, align 8, !tbaa !5
  %35 = add i64 %34, 8
  %36 = tail call noalias ptr @zmalloc(i64 noundef %35) #22
  store ptr %36, ptr %21, align 8, !tbaa !9
  %37 = load ptr, ptr %32, align 8, !tbaa !9
  tail call void @llvm.memcpy.p0.p0.i64(ptr align 1 %36, ptr align 1 %37, i64 %35, i1 false)
  br label %45

38:                                               ; preds = %19
  %39 = getelementptr inbounds nuw i8, ptr %.035, i64 24
  %40 = load i64, ptr %39, align 8, !tbaa !15
  %41 = tail call noalias ptr @zmalloc(i64 noundef %40) #22
  store ptr %41, ptr %21, align 8, !tbaa !9
  %42 = getelementptr inbounds nuw i8, ptr %.035, i64 16
  %43 = load ptr, ptr %42, align 8, !tbaa !9
  %44 = load i64, ptr %39, align 8, !tbaa !15
  tail call void @llvm.memcpy.p0.p0.i64(ptr align 1 %41, ptr align 1 %43, i64 %44, i1 false)
  br label %45

45:                                               ; preds = %19, %38, %31
  %46 = load i32, ptr %27, align 8
  %47 = and i32 %46, 65535
  %48 = load i32, ptr %22, align 8
  %49 = and i32 %48, -65536
  %50 = or disjoint i32 %49, %47
  store i32 %50, ptr %22, align 8
  %51 = zext nneg i32 %47 to i64
  %52 = load i64, ptr %17, align 8, !tbaa !5
  %53 = add i64 %52, %51
  store i64 %53, ptr %17, align 8, !tbaa !5
  %54 = getelementptr inbounds nuw i8, ptr %.035, i64 24
  %55 = load i64, ptr %54, align 8, !tbaa !15
  store i64 %55, ptr %24, align 8, !tbaa !15
  %56 = load i32, ptr %27, align 8
  %57 = and i32 %56, 196608
  %58 = and i32 %50, -196609
  %59 = or disjoint i32 %57, %58
  store i32 %59, ptr %22, align 8
  %60 = load i32, ptr %27, align 8
  %61 = and i32 %60, 786432
  %62 = and i32 %59, -786433
  %63 = or disjoint i32 %62, %61
  store i32 %63, ptr %22, align 8
  %64 = load ptr, ptr %18, align 8, !tbaa !16
  tail call void @__quicklistInsertNode(ptr noundef nonnull %9, ptr noundef %64, ptr noundef nonnull %20, i32 noundef 1)
  %65 = getelementptr inbounds nuw i8, ptr %.035, i64 8
  %.0 = load ptr, ptr %65, align 8, !tbaa !16
  %.not = icmp eq ptr %.0, null
  br i1 %.not, label %._crit_edge, label %19, !llvm.loop !55
}